; ModuleID = '29/1808.c'
source_filename = "29/1808.c"
target datalayout = "e-m:e-p270:32:32-p271:32:32-p272:64:64-i64:64-f80:128-n8:16:32:64-S128"
target triple = "x86_64-pc-linux-gnu"

@.str = private unnamed_addr constant [3 x i8] c"%d\00", align 1
@.str.1 = private unnamed_addr constant [6 x i8] c"%.3f\0A\00", align 1

; Function Attrs: noinline nounwind uwtable
define dso_local i32 @main() #0 {
  %1 = alloca i32, align 4
  %2 = alloca float, align 4
  %3 = alloca float, align 4
  %4 = alloca float, align 4
  %5 = alloca float, align 4
  %6 = alloca float, align 4
  %7 = alloca float, align 4
  %8 = alloca float, align 4
  %9 = alloca i32, align 4
  %10 = alloca i32, align 4
  %11 = alloca i32, align 4
  %12 = alloca i32, align 4
  store i32 0, i32* %1, align 4
  store float 0.000000e+00, float* %2, align 4
  %13 = call i32 (i8*, ...) @__isoc99_scanf(i8* getelementptr inbounds ([3 x i8], [3 x i8]* @.str, i64 0, i64 0), i32* %11)
  store i32 1, i32* %10, align 4
  br label %14

14:                                               ; preds = %52, %0
  %15 = load i32, i32* %10, align 4
  %16 = load i32, i32* %11, align 4
  %17 = icmp sle i32 %15, %16
  br i1 %17, label %18, label %58

18:                                               ; preds = %14
  %19 = call i32 (i8*, ...) @__isoc99_scanf(i8* getelementptr inbounds ([3 x i8], [3 x i8]* @.str, i64 0, i64 0), i32* %12)
  %20 = load i32, i32* %12, align 4
  %21 = icmp eq i32 %20, 1
  br i1 %21, label %22, label %23

22:                                               ; preds = %18
  store float 2.000000e+00, float* %2, align 4
  br label %52

23:                                               ; preds = %18
  %24 = load i32, i32* %12, align 4
  %25 = icmp eq i32 %24, 2
  br i1 %25, label %26, label %27

26:                                               ; preds = %23
  store float 3.500000e+00, float* %2, align 4
  br label %51

27:                                               ; preds = %23
  store i32 3, i32* %9, align 4
  store float 2.000000e+00, float* %3, align 4
  store float 1.000000e+00, float* %4, align 4
  store float 3.000000e+00, float* %5, align 4
  store float 2.000000e+00, float* %6, align 4
  store float 3.500000e+00, float* %2, align 4
  br label %28

28:                                               ; preds = %32, %27
  %29 = load i32, i32* %9, align 4
  %30 = load i32, i32* %12, align 4
  %31 = icmp sle i32 %29, %30
  br i1 %31, label %32, label %50

32:                                               ; preds = %28
  %33 = load float, float* %3, align 4
  %34 = load float, float* %5, align 4
  %35 = fadd float %33, %34
  store float %35, float* %7, align 4
  %36 = load float, float* %4, align 4
  %37 = load float, float* %6, align 4
  %38 = fadd float %36, %37
  store float %38, float* %8, align 4
  %39 = load float, float* %5, align 4
  store float %39, float* %3, align 4
  %40 = load float, float* %6, align 4
  store float %40, float* %4, align 4
  %41 = load float, float* %7, align 4
  store float %41, float* %5, align 4
  %42 = load float, float* %8, align 4
  store float %42, float* %6, align 4
  %43 = load float, float* %2, align 4
  %44 = load float, float* %5, align 4
  %45 = load float, float* %6, align 4
  %46 = fdiv float %44, %45
  %47 = fadd float %43, %46
  store float %47, float* %2, align 4
  %48 = load i32, i32* %9, align 4
  %49 = add nsw i32 %48, 1
  store i32 %49, i32* %9, align 4
  br label %28

50:                                               ; preds = %28
  br label %51

51:                                               ; preds = %50, %26
  br label %52

52:                                               ; preds = %51, %22
  %53 = load float, float* %2, align 4
  %54 = fpext float %53 to double
  %55 = call i32 (i8*, ...) @printf(i8* getelementptr inbounds ([6 x i8], [6 x i8]* @.str.1, i64 0, i64 0), double %54)
  %56 = load i32, i32* %10, align 4
  %57 = add nsw i32 %56, 1
  store i32 %57, i32* %10, align 4
  br label %14

58:                                               ; preds = %14
  ret i32 0
}

declare dso_local i32 @__isoc99_scanf(i8*, ...) #1

declare dso_local i32 @printf(i8*, ...) #1


!llvm.module.flags = !{!0}
!llvm.ident = !{!1}

!0 = !{i32 1, !"wchar_size", i32 4}
!1 = !{!"clang version 10.0.0-4ubuntu1 "}
